; ModuleID = 'source-C-CXX/32/14.c'
source_filename = "source-C-CXX/32/14.c"
target datalayout = "e-m:e-p270:32:32-p271:32:32-p272:64:64-i64:64-f80:128-n8:16:32:64-S128"
target triple = "x86_64-pc-linux-gnu"

@.str = private unnamed_addr constant [3 x i8] c"%d\00", align 1
@.str.2 = private unnamed_addr constant [3 x i8] c"%s\00", align 1

; Function Attrs: nounwind sspstrong uwtable
define dso_local i32 @main() local_unnamed_addr #0 {
  %1 = alloca i32, align 4
  %2 = alloca [257 x i8], align 16
  %3 = bitcast i32* %1 to i8*
  call void @llvm.lifetime.start.p0i8(i64 4, i8* nonnull %3) #6
  %4 = call i32 (i8*, ...) @__isoc99_scanf(i8* getelementptr inbounds ([3 x i8], [3 x i8]* @.str, i64 0, i64 0), i32* nonnull %1)
  %5 = getelementptr inbounds [257 x i8], [257 x i8]* %2, i64 0, i64 0
  call void @llvm.lifetime.start.p0i8(i64 257, i8* nonnull %5) #6
  %6 = call i32 (i8*, ...) bitcast (i32 (...)* @gets to i32 (i8*, ...)*)(i8* nonnull %5) #6
  %7 = load i32, i32* %1, align 4, !tbaa !5
  %8 = icmp sgt i32 %7, 0
  br i1 %8, label %9, label %40

9:                                                ; preds = %0, %35
  %10 = phi i1 [ false, %35 ], [ true, %0 ]
  %11 = phi i32 [ %37, %35 ], [ 0, %0 ]
  %12 = call i32 (i8*, ...) bitcast (i32 (...)* @gets to i32 (i8*, ...)*)(i8* nonnull %5) #6
  %13 = load i8, i8* %5, align 16
  %14 = icmp eq i8 %13, 0
  br i1 %14, label %32, label %15

15:                                               ; preds = %9, %29
  %16 = phi i8 [ %31, %29 ], [ %13, %9 ]
  %17 = phi i64 [ %26, %29 ], [ 0, %9 ]
  %18 = getelementptr inbounds [257 x i8], [257 x i8]* %2, i64 0, i64 %17
  %19 = sext i8 %16 to i32
  switch i32 %19, label %25 [
    i32 67, label %23
    i32 71, label %20
    i32 65, label %21
    i32 84, label %22
  ]

20:                                               ; preds = %15
  br label %23

21:                                               ; preds = %15
  br label %23

22:                                               ; preds = %15
  br label %23

23:                                               ; preds = %15, %22, %21, %20
  %24 = phi i8 [ 67, %20 ], [ 84, %21 ], [ 65, %22 ], [ 71, %15 ]
  store i8 %24, i8* %18, align 1, !tbaa !9
  br label %25

25:                                               ; preds = %23, %15
  %26 = add nuw nsw i64 %17, 1
  %27 = call i64 @strlen(i8* noundef nonnull %5) #7
  %28 = icmp ugt i64 %27, %26
  br i1 %28, label %29, label %32, !llvm.loop !10

29:                                               ; preds = %25
  %30 = getelementptr inbounds [257 x i8], [257 x i8]* %2, i64 0, i64 %26
  %31 = load i8, i8* %30, align 1, !tbaa !9
  br label %15

32:                                               ; preds = %25, %9
  br i1 %10, label %35, label %33

33:                                               ; preds = %32
  %34 = call i32 @putchar(i32 10)
  br label %35

35:                                               ; preds = %33, %32
  %36 = call i32 (i8*, ...) @printf(i8* nonnull dereferenceable(1) getelementptr inbounds ([3 x i8], [3 x i8]* @.str.2, i64 0, i64 0), i8* nonnull %5)
  %37 = add nuw nsw i32 %11, 1
  %38 = load i32, i32* %1, align 4, !tbaa !5
  %39 = icmp slt i32 %37, %38
  br i1 %39, label %9, label %40, !llvm.loop !12

40:                                               ; preds = %35, %0
  call void @llvm.lifetime.end.p0i8(i64 257, i8* nonnull %5) #6
  call void @llvm.lifetime.end.p0i8(i64 4, i8* nonnull %3) #6
  ret i32 0
}

; Function Attrs: argmemonly mustprogress nofree nosync nounwind willreturn
declare void @llvm.lifetime.start.p0i8(i64 immarg, i8* nocapture) #1

; Function Attrs: nofree nounwind
declare noundef i32 @__isoc99_scanf(i8* nocapture noundef readonly, ...) local_unnamed_addr #2

declare i32 @gets(...) local_unnamed_addr #3

; Function Attrs: argmemonly mustprogress nofree nounwind readonly willreturn
declare i64 @strlen(i8* nocapture) local_unnamed_addr #4

; Function Attrs: nofree nounwind
declare noundef i32 @printf(i8* nocapture noundef readonly, ...) local_unnamed_addr #2

; Function Attrs: argmemonly mustprogress nofree nosync nounwind willreturn
declare void @llvm.lifetime.end.p0i8(i64 immarg, i8* nocapture) #1

; Function Attrs: nofree nounwind
declare noundef i32 @putchar(i32 noundef) local_unnamed_addr #5


!llvm.module.flags = !{!0, !1, !2, !3}
!llvm.ident = !{!4}

!0 = !{i32 1, !"wchar_size", i32 4}
!1 = !{i32 7, !"PIC Level", i32 2}
!2 = !{i32 7, !"PIE Level", i32 2}
!3 = !{i32 7, !"uwtable", i32 1}
!4 = !{!"clang version 13.0.0"}
!5 = !{!6, !6, i64 0}
!6 = !{!"int", !7, i64 0}
!7 = !{!"omnipotent char", !8, i64 0}
!8 = !{!"Simple C/C++ TBAA"}
!9 = !{!7, !7, i64 0}
!10 = distinct !{!10, !11}
!11 = !{!"llvm.loop.mustprogress"}
!12 = distinct !{!12, !11}
